; Function Attrs: mustprogress uwtable
define noundef zeroext i1 @_ZNK6google8protobuf11MessageLite32SerializePartialToFileDescriptorEi(ptr noundef nonnull align 8 dereferenceable(16) %this, i32 noundef %file_descriptor) local_unnamed_addr #3 align 2 personality ptr @__gxx_personality_v0 {
entry:
  %output = alloca %"class.google::protobuf::io::FileOutputStream", align 8
  call void @_ZN6google8protobuf2io16FileOutputStreamC1Eii(ptr noundef nonnull align 8 dereferenceable(72) %output, i32 noundef %file_descriptor, i32 noundef -1)
  %call = invoke noundef zeroext i1 @_ZNK6google8protobuf11MessageLite32SerializePartialToZeroCopyStreamEPNS0_2io20ZeroCopyOutputStreamE(ptr noundef nonnull align 8 dereferenceable(16) %this, ptr noundef nonnull %output)
          to label %invoke.cont unwind label %lpad

invoke.cont:                                      ; preds = %entry
  br i1 %call, label %land.rhs, label %land.end

land.rhs:                                         ; preds = %invoke.cont
  %call3 = invoke noundef zeroext i1 @_ZN6google8protobuf2io26CopyingOutputStreamAdaptor5FlushEv(ptr noundef nonnull align 8 dereferenceable(48) %output)
          to label %land.end unwind label %lpad

land.end:                                         ; preds = %land.rhs, %invoke.cont
  %0 = phi i1 [ false, %invoke.cont ], [ %call3, %land.rhs ]
  call void @_ZN6google8protobuf2io16FileOutputStreamD1Ev(ptr noundef nonnull align 8 dereferenceable(72) %output) #20
  ret i1 %0

lpad:                                             ; preds = %land.rhs, %entry
  %1 = landingpad { ptr, i32 }
          cleanup
  call void @_ZN6google8protobuf2io16FileOutputStreamD1Ev(ptr noundef nonnull align 8 dereferenceable(72) %output) #20
  resume { ptr, i32 } %1
}